Certificate:
    Data:
        Version: 3 (0x2)
        Serial Number: 1 (0x1)
        Signature Algorithm: sha256WithRSAEncryption
        Issuer: C=JP, ST=Tokyo, L=Shinjuku-ku, O=Example Corp., OU=Section 1
        Validity
            Not Before: Oct 11 16:12:33 2020 GMT
            Not After : Oct 11 16:12:33 2021 GMT
        Subject: C=JP, ST=Tokyo, O=Example Corp., OU=Server, CN=*
        Subject Public Key Info:
            Public Key Algorithm: rsaEncryption
                RSA Public-Key: (4096 bit)
                Modulus:
                    00:e7:74:33:92:dc:84:18:88:61:a3:47:0a:f4:37:
                    bb:7d:29:2d:af:cb:a2:c7:a9:1d:b4:17:d4:f0:3e:
                    ce:f8:ab:9f:71:9d:9c:ab:42:8e:6d:d9:ba:15:45:
                    a4:01:4d:f9:33:4b:e0:41:08:04:60:66:1c:ec:5d:
                    53:7b:10:96:ee:c3:3f:30:ea:cb:38:23:78:90:cd:
                    b3:e5:82:5e:0a:e8:37:e9:3c:c7:33:d5:6b:fa:75:
                    ae:9f:8c:1e:7a:2e:9e:06:1c:73:b9:f7:66:f4:1b:
                    b3:31:a8:36:74:ee:f8:3c:61:25:39:d5:f4:16:32:
                    66:90:36:d2:02:c0:af:92:4f:0f:1c:e0:1d:0b:fb:
                    32:c0:af:3b:9d:5e:1e:c1:3d:59:ce:76:f2:59:8c:
                    3f:c8:48:eb:34:ef:50:9b:1c:5f:3d:3f:79:ee:19:
                    ce:35:81:01:51:25:30:b2:dd:4c:01:fc:9e:3c:e1:
                    f2:83:1f:95:05:b7:18:64:2d:aa:7d:0f:b9:d7:c0:
                    02:ce:13:8a:17:4f:76:98:c7:28:f3:7d:3e:b4:96:
                    c9:f5:ad:d0:ae:ab:c0:97:30:fc:8c:39:dc:74:4a:
                    ce:cb:89:65:76:dd:0e:78:9b:8c:03:a8:14:e4:6f:
                    4b:1e:c1:00:4b:e6:3e:dc:2d:c4:2e:a8:d6:e8:02:
                    76:41:58:99:17:16:8c:e4:c1:e1:77:0f:bc:9b:bf:
                    29:a2:5d:9f:92:58:95:6a:0b:2e:8f:33:74:b4:f6:
                    0c:0c:3c:81:28:df:a0:2d:fa:59:6c:32:b4:b2:55:
                    a2:66:14:c1:01:75:06:30:33:0e:ec:f6:a1:08:1e:
                    95:a8:b6:dc:ea:d8:97:b5:b7:31:18:c0:a1:6e:5f:
                    c8:56:08:bb:14:78:30:0a:a4:78:4b:28:a1:27:eb:
                    24:08:e7:47:de:0b:62:7b:c1:c0:24:0c:71:20:4b:
                    3f:b9:fe:e7:ff:48:17:6e:32:2c:7a:8a:dc:aa:1c:
                    15:4c:2d:c1:4f:f2:a0:dd:05:dd:c8:b9:5d:2b:58:
                    b8:cc:86:90:ea:06:72:a9:c5:60:ea:89:e6:7a:0f:
                    a7:bc:05:87:5f:dd:c7:a5:6b:95:93:eb:11:27:ef:
                    2d:3d:c7:74:e3:4d:f6:6a:ad:ee:aa:81:ee:88:02:
                    c3:e0:d9:15:29:ab:72:47:b7:a8:c5:04:13:a3:98:
                    27:10:61:ca:0d:3e:d4:12:05:46:2d:66:bc:c6:8f:
                    c7:83:6f:25:c4:61:b7:69:87:02:f2:8b:4b:f1:aa:
                    48:ae:b0:89:8c:24:54:7c:62:da:d9:f7:47:53:31:
                    cb:97:84:f3:4e:26:9d:db:7c:cd:f5:39:39:80:5f:
                    cb:0f:eb
                Exponent: 65537 (0x10001)
        X509v3 extensions:
            X509v3 Subject Alternative Name: 
                DNS:example.com, DNS:*.example.com
    Signature Algorithm: sha256WithRSAEncryption
         18:9d:31:ef:c0:29:12:ef:02:75:d4:a4:ac:ef:7a:03:bd:0e:
         95:a1:aa:a5:e5:4c:bb:51:70:f7:95:3a:6e:50:8c:4b:d8:09:
         6a:01:a2:c3:e5:d8:b6:c1:7d:95:de:03:a7:51:86:b8:03:e8:
         9e:f9:3b:4a:73:8b:f2:24:62:2a:a3:ac:82:13:14:e7:4d:ae:
         94:94:47:de:53:fd:e1:b0:70:6e:7f:15:db:6e:de:16:a2:af:
         67:30:0a:2c:bf:a6:31:c0:d7:2b:d8:6f:e1:15:c9:b3:2a:50:
         ec:4a:8a:05:9e:b1:4c:93:fe:c5:1a:e8:89:c1:c6:e0:99:00:
         43:d1:33:97:a9:4c:74:79:16:e6:0f:e6:1d:2d:55:4d:e4:50:
         34:68:5e:4a:5f:d3:87:38:41:0a:8b:03:f1:9e:3a:35:e5:5f:
         7b:34:f1:c5:27:a2:59:71:72:61:a3:3d:4e:78:09:68:43:b5:
         70:3c:ea:46:1c:90:ae:7d:a5:58:98:92:d8:7a:6a:f7:11:11:
         31:b4:c7:b4:ed:75:12:b3:2b:0a:81:79:e1:9f:9d:ad:1d:c5:
         d8:ad:ff:af:8e:5b:95:21:40:dd:db:98:8c:6a:4d:70:9b:df:
         38:38:66:4d:b2:dc:58:d7:b3:60:45:a1:76:3d:09:11:28:fe:
         2d:33:cc:fd:dc:ef:e8:91:75:7c:88:54:12:27:b0:43:8f:5b:
         28:9f:fa:bb:70:d7:52:40:7f:9b:64:c7:e2:95:ee:6d:d6:16:
         f6:e0:ed:ac:66:cc:3f:35:c4:91:53:85:d8:65:89:39:3d:b9:
         18:ac:61:a3:2a:16:a9:21:9e:88:0a:34:ae:c9:32:58:17:1c:
         11:ac:c1:9b:84:91:a8:c2:9c:b1:79:40:f4:b8:d8:c3:8a:c2:
         5e:1d:01:49:12:b7:c6:32:4f:98:ce:16:70:64:4a:03:44:b5:
         cf:d9:cc:1d:f0:c4:c1:3c:71:33:b8:91:b3:9b:74:8f:4e:fc:
         95:b8:e9:a3:cf:2f:47:85:f2:62:bf:a9:6c:19:33:c0:6f:c6:
         98:82:4d:0f:64:97:87:d1:6f:01:13:0f:cd:e5:87:98:74:4a:
         c1:9e:41:0c:3c:f7:69:a4:c9:f3:bb:0c:f9:14:22:c5:db:53:
         23:20:81:18:86:11:7a:6f:84:80:d4:92:b2:84:05:68:c2:f5:
         31:51:f1:a2:9d:f6:fd:aa:82:c9:56:3a:1d:ed:b9:3d:72:77:
         ca:e8:5b:92:c2:96:a8:1a:e4:d5:7c:2c:18:cd:f4:79:09:b5:
         84:fc:ab:27:9f:b5:f3:29:40:a8:b5:29:14:d3:ad:a5:2c:18:
         4e:7d:4e:46:8f:2f:d9:70
-----BEGIN CERTIFICATE-----
MIIFVTCCAz2gAwIBAgIBATANBgkqhkiG9w0BAQsFADBfMQswCQYDVQQGEwJKUDEO
MAwGA1UECAwFVG9reW8xFDASBgNVBAcMC1NoaW5qdWt1LWt1MRYwFAYDVQQKDA1F
eGFtcGxlIENvcnAuMRIwEAYDVQQLDAlTZWN0aW9uIDEwHhcNMjAxMDExMTYxMjMz
WhcNMjExMDExMTYxMjMzWjBSMQswCQYDVQQGEwJKUDEOMAwGA1UECAwFVG9reW8x
FjAUBgNVBAoMDUV4YW1wbGUgQ29ycC4xDzANBgNVBAsMBlNlcnZlcjEKMAgGA1UE
AwwBKjCCAiIwDQYJKoZIhvcNAQEBBQADggIPADCCAgoCggIBAOd0M5LchBiIYaNH
CvQ3u30pLa/LosepHbQX1PA+zvirn3GdnKtCjm3ZuhVFpAFN+TNL4EEIBGBmHOxd
U3sQlu7DPzDqyzgjeJDNs+WCXgroN+k8xzPVa/p1rp+MHnoungYcc7n3ZvQbszGo
NnTu+DxhJTnV9BYyZpA20gLAr5JPDxzgHQv7MsCvO51eHsE9Wc528lmMP8hI6zTv
UJscXz0/ee4ZzjWBAVElMLLdTAH8njzh8oMflQW3GGQtqn0PudfAAs4TihdPdpjH
KPN9PrSWyfWt0K6rwJcw/Iw53HRKzsuJZXbdDnibjAOoFORvSx7BAEvmPtwtxC6o
1ugCdkFYmRcWjOTB4XcPvJu/KaJdn5JYlWoLLo8zdLT2DAw8gSjfoC36WWwytLJV
omYUwQF1BjAzDuz2oQgelai23OrYl7W3MRjAoW5fyFYIuxR4MAqkeEsooSfrJAjn
R94LYnvBwCQMcSBLP7n+5/9IF24yLHqK3KocFUwtwU/yoN0F3ci5XStYuMyGkOoG
cqnFYOqJ5noPp7wFh1/dx6VrlZPrESfvLT3HdONN9mqt7qqB7ogCw+DZFSmrcke3
qMUEE6OYJxBhyg0+1BIFRi1mvMaPx4NvJcRht2mHAvKLS/GqSK6wiYwkVHxi2tn3
R1Mxy5eE804mndt8zfU5OYBfyw/rAgMBAAGjKTAnMCUGA1UdEQQeMByCC2V4YW1w
bGUuY29tgg0qLmV4YW1wbGUuY29tMA0GCSqGSIb3DQEBCwUAA4ICAQAYnTHvwCkS
7wJ11KSs73oDvQ6Voaql5Uy7UXD3lTpuUIxL2AlqAaLD5di2wX2V3gOnUYa4A+ie
+TtKc4vyJGIqo6yCExTnTa6UlEfeU/3hsHBufxXbbt4Woq9nMAosv6YxwNcr2G/h
FcmzKlDsSooFnrFMk/7FGuiJwcbgmQBD0TOXqUx0eRbmD+YdLVVN5FA0aF5KX9OH
OEEKiwPxnjo15V97NPHFJ6JZcXJhoz1OeAloQ7VwPOpGHJCufaVYmJLYemr3EREx
tMe07XUSsysKgXnhn52tHcXYrf+vjluVIUDd25iMak1wm984OGZNstxY17NgRaF2
PQkRKP4tM8z93O/okXV8iFQSJ7BDj1son/q7cNdSQH+bZMfile5t1hb24O2sZsw/
NcSRU4XYZYk5PbkYrGGjKhapIZ6ICjSuyTJYFxwRrMGbhJGowpyxeUD0uNjDisJe
HQFJErfGMk+YzhZwZEoDRLXP2cwd8MTBPHEzuJGzm3SPTvyVuOmjzy9HhfJiv6ls
GTPAb8aYgk0PZJeH0W8BEw/N5YeYdErBnkEMPPdppMnzuwz5FCLF21MjIIEYhhF6
b4SA1JKyhAVowvUxUfGinfb9qoLJVjod7bk9cnfK6FuSwpaoGuTVfCwYzfR5CbWE
/Ksnn7XzKUCotSkU062lLBhOfU5Gjy/ZcA==
-----END CERTIFICATE-----
